; Function Attrs: mustprogress nofree norecurse nosync nounwind willreturn memory(read, inaccessiblemem: none) uwtable
define noundef zeroext i1 @_ZN14VrmlTranslator6Parser7StartOfEi(ptr noundef nonnull readonly align 8 captures(none) dereferenceable(208) %0, i32 noundef %1) local_unnamed_addr #2 align 2 {
  %3 = sext i32 %1 to i64
  %4 = getelementptr inbounds nuw i8, ptr %0, i64 48
  %5 = load ptr, ptr %4, align 8
  %6 = load i32, ptr %5, align 8
  %7 = sext i32 %6 to i64
  %8 = getelementptr inbounds [12 x [87 x i8]], ptr @_ZZN14VrmlTranslator6Parser7StartOfEiE3set, i64 0, i64 %3, i64 %7
  %9 = load i8, ptr %8, align 1
  %10 = trunc i8 %9 to i1
  ret i1 %10
}